target datalayout = "e-m:e-p270:32:32-p271:32:32-p272:64:64-i64:64-i128:128-f80:128-n8:16:32:64-S128"
target triple = "x86_64-pc-linux-gnu"

@.str.24 = private unnamed_addr constant [3 x i8] c">=\00", align 1
@.str.26 = private unnamed_addr constant [3 x i8] c"<=\00", align 1
@.str.52 = private unnamed_addr constant [5 x i8] c"hour\00", align 1
@.str.65 = private unnamed_addr constant [5 x i8] c"mday\00", align 1
@parse_frag_cb.rbimpl_id = internal global i64 0, align 8
@parse_frag_cb.rbimpl_id.129 = internal global i64 0, align 8
@parse_frag_cb.rbimpl_id.130 = internal global i64 0, align 8
@parse_frag_cb.rbimpl_id.131 = internal global i64 0, align 8
@parse_frag_cb.rbimpl_id.132 = internal global i64 0, align 8
@parse_frag_cb.rbimpl_id.133 = internal global i64 0, align 8
@parse_frag_cb.rbimpl_id.134 = internal global i64 0, align 8
@parse_frag_cb.rbimpl_id.135 = internal global i64 0, align 8
@parse_frag_cb.rbimpl_id.136 = internal global i64 0, align 8
@parse_frag_cb.rbimpl_id.137 = internal global i64 0, align 8

; Function Attrs: inlinehint nounwind sspstrong willreturn memory(read) uwtable
define internal i64 @rb_intern_const(ptr noundef nonnull %0) #2 {
  %2 = alloca ptr, align 8
  %3 = alloca i64, align 8
  store ptr %0, ptr %2, align 8, !tbaa !10
  call void @llvm.lifetime.start.p0(i64 8, ptr %3) #21
  %4 = load ptr, ptr %2, align 8, !tbaa !10
  %5 = call i64 @strlen(ptr noundef %4) #22
  store i64 %5, ptr %3, align 8, !tbaa !6
  %6 = load ptr, ptr %2, align 8, !tbaa !10
  %7 = load i64, ptr %3, align 8, !tbaa !6
  %8 = call i64 @rb_intern2(ptr noundef %6, i64 noundef %7)
  call void @llvm.lifetime.end.p0(i64 8, ptr %3) #21
  ret i64 %8
}

; Function Attrs: inlinehint nounwind sspstrong willreturn memory(none) uwtable
define internal zeroext i1 @RB_NIL_P(i64 noundef %0) #4 {
  %2 = alloca i64, align 8
  store i64 %0, ptr %2, align 8, !tbaa !6
  %3 = load i64, ptr %2, align 8, !tbaa !6
  %4 = icmp eq i64 %3, 4
  ret i1 %4
}

; Function Attrs: inlinehint nounwind sspstrong memory(argmem: readwrite, inaccessiblemem: readwrite) uwtable
define internal i64 @rbimpl_intern_const(ptr noundef nonnull %0, ptr noundef nonnull %1) #7 {
  %3 = alloca ptr, align 8
  %4 = alloca ptr, align 8
  store ptr %0, ptr %3, align 8, !tbaa !20
  store ptr %1, ptr %4, align 8, !tbaa !10
  br label %5

5:                                                ; preds = %10, %2
  %6 = load ptr, ptr %3, align 8, !tbaa !20
  %7 = load i64, ptr %6, align 8, !tbaa !6
  %8 = icmp ne i64 %7, 0
  %9 = xor i1 %8, true
  br i1 %9, label %10, label %14

10:                                               ; preds = %5
  %11 = load ptr, ptr %4, align 8, !tbaa !10
  %12 = call i64 @rb_intern_const(ptr noundef %11) #22
  %13 = load ptr, ptr %3, align 8, !tbaa !20
  store i64 %12, ptr %13, align 8, !tbaa !6
  br label %5, !llvm.loop !35

14:                                               ; preds = %5
  %15 = load ptr, ptr %3, align 8, !tbaa !20
  %16 = load i64, ptr %15, align 8, !tbaa !6
  ret i64 %16
}

; Function Attrs: nounwind sspstrong uwtable
define internal i32 @parse_frag_cb(i64 noundef %0, i64 noundef %1) #0 {
  %3 = alloca i64, align 8
  %4 = alloca i64, align 8
  %5 = alloca i64, align 8
  %6 = alloca i64, align 8
  %7 = alloca i64, align 8
  %8 = alloca i64, align 8
  %9 = alloca i64, align 8
  %10 = alloca i64, align 8
  %11 = alloca i64, align 8
  %12 = alloca i64, align 8
  %13 = alloca i64, align 8
  %14 = alloca i64, align 8
  %15 = alloca i64, align 8
  %16 = alloca i64, align 8
  store i64 %0, ptr %3, align 8, !tbaa !6
  store i64 %1, ptr %4, align 8, !tbaa !6
  call void @llvm.lifetime.start.p0(i64 8, ptr %5) #21
  call void @llvm.lifetime.start.p0(i64 8, ptr %6) #21
  %17 = load i64, ptr %3, align 8, !tbaa !6
  %18 = call i64 @rb_reg_nth_match(i32 noundef 1, i64 noundef %17)
  store i64 %18, ptr %5, align 8, !tbaa !6
  %19 = load i64, ptr %4, align 8, !tbaa !6
  %20 = call i64 @rbimpl_intern_const(ptr noundef @parse_frag_cb.rbimpl_id, ptr noundef @.str.52) #25
  store i64 %20, ptr %7, align 8, !tbaa !6
  %21 = load i64, ptr %7, align 8, !tbaa !6
  %22 = call i64 @rb_id2sym(i64 noundef %21)
  %23 = call i64 @rb_hash_aref(i64 noundef %19, i64 noundef %22)
  %24 = call zeroext i1 @RB_NIL_P(i64 noundef %23) #23
  br i1 %24, label %54, label %25

25:                                               ; preds = %2
  %26 = load i64, ptr %4, align 8, !tbaa !6
  %27 = call i64 @rbimpl_intern_const(ptr noundef @parse_frag_cb.rbimpl_id.129, ptr noundef @.str.65) #25
  store i64 %27, ptr %8, align 8, !tbaa !6
  %28 = load i64, ptr %8, align 8, !tbaa !6
  %29 = call i64 @rb_id2sym(i64 noundef %28)
  %30 = call i64 @rb_hash_aref(i64 noundef %26, i64 noundef %29)
  %31 = call zeroext i1 @RB_NIL_P(i64 noundef %30) #23
  br i1 %31, label %32, label %54

32:                                               ; preds = %25
  %33 = load i64, ptr %5, align 8, !tbaa !6
  %34 = call i64 @rb_str_to_inum(i64 noundef %33, i32 noundef 10, i32 noundef 0)
  store i64 %34, ptr %6, align 8, !tbaa !6
  %35 = load i64, ptr %6, align 8, !tbaa !6
  %36 = call i64 @rbimpl_intern_const(ptr noundef @parse_frag_cb.rbimpl_id.130, ptr noundef @.str.24) #25
  store i64 %36, ptr %9, align 8, !tbaa !6
  %37 = load i64, ptr %9, align 8, !tbaa !6
  %38 = call i64 (i64, i64, i32, ...) @rb_funcall(i64 noundef %35, i64 noundef %37, i32 noundef 1, i64 noundef 3)
  %39 = icmp ne i64 %38, 0
  br i1 %39, label %40, label %53

40:                                               ; preds = %32
  %41 = load i64, ptr %6, align 8, !tbaa !6
  %42 = call i64 @rbimpl_intern_const(ptr noundef @parse_frag_cb.rbimpl_id.131, ptr noundef @.str.26) #25
  store i64 %42, ptr %10, align 8, !tbaa !6
  %43 = load i64, ptr %10, align 8, !tbaa !6
  %44 = call i64 (i64, i64, i32, ...) @rb_funcall(i64 noundef %41, i64 noundef %43, i32 noundef 1, i64 noundef 63)
  %45 = icmp ne i64 %44, 0
  br i1 %45, label %46, label %53

46:                                               ; preds = %40
  %47 = load i64, ptr %4, align 8, !tbaa !6
  %48 = call i64 @rbimpl_intern_const(ptr noundef @parse_frag_cb.rbimpl_id.132, ptr noundef @.str.65) #25
  store i64 %48, ptr %11, align 8, !tbaa !6
  %49 = load i64, ptr %11, align 8, !tbaa !6
  %50 = call i64 @rb_id2sym(i64 noundef %49)
  %51 = load i64, ptr %6, align 8, !tbaa !6
  %52 = call i64 @rb_hash_aset(i64 noundef %47, i64 noundef %50, i64 noundef %51)
  br label %53

53:                                               ; preds = %46, %40, %32
  br label %54

54:                                               ; preds = %53, %25, %2
  %55 = load i64, ptr %4, align 8, !tbaa !6
  %56 = call i64 @rbimpl_intern_const(ptr noundef @parse_frag_cb.rbimpl_id.133, ptr noundef @.str.65) #25
  store i64 %56, ptr %12, align 8, !tbaa !6
  %57 = load i64, ptr %12, align 8, !tbaa !6
  %58 = call i64 @rb_id2sym(i64 noundef %57)
  %59 = call i64 @rb_hash_aref(i64 noundef %55, i64 noundef %58)
  %60 = call zeroext i1 @RB_NIL_P(i64 noundef %59) #23
  br i1 %60, label %90, label %61

61:                                               ; preds = %54
  %62 = load i64, ptr %4, align 8, !tbaa !6
  %63 = call i64 @rbimpl_intern_const(ptr noundef @parse_frag_cb.rbimpl_id.134, ptr noundef @.str.52) #25
  store i64 %63, ptr %13, align 8, !tbaa !6
  %64 = load i64, ptr %13, align 8, !tbaa !6
  %65 = call i64 @rb_id2sym(i64 noundef %64)
  %66 = call i64 @rb_hash_aref(i64 noundef %62, i64 noundef %65)
  %67 = call zeroext i1 @RB_NIL_P(i64 noundef %66) #23
  br i1 %67, label %68, label %90

68:                                               ; preds = %61
  %69 = load i64, ptr %5, align 8, !tbaa !6
  %70 = call i64 @rb_str_to_inum(i64 noundef %69, i32 noundef 10, i32 noundef 0)
  store i64 %70, ptr %6, align 8, !tbaa !6
  %71 = load i64, ptr %6, align 8, !tbaa !6
  %72 = call i64 @rbimpl_intern_const(ptr noundef @parse_frag_cb.rbimpl_id.135, ptr noundef @.str.24) #25
  store i64 %72, ptr %14, align 8, !tbaa !6
  %73 = load i64, ptr %14, align 8, !tbaa !6
  %74 = call i64 (i64, i64, i32, ...) @rb_funcall(i64 noundef %71, i64 noundef %73, i32 noundef 1, i64 noundef 1)
  %75 = icmp ne i64 %74, 0
  br i1 %75, label %76, label %89

76:                                               ; preds = %68
  %77 = load i64, ptr %6, align 8, !tbaa !6
  %78 = call i64 @rbimpl_intern_const(ptr noundef @parse_frag_cb.rbimpl_id.136, ptr noundef @.str.26) #25
  store i64 %78, ptr %15, align 8, !tbaa !6
  %79 = load i64, ptr %15, align 8, !tbaa !6
  %80 = call i64 (i64, i64, i32, ...) @rb_funcall(i64 noundef %77, i64 noundef %79, i32 noundef 1, i64 noundef 49)
  %81 = icmp ne i64 %80, 0
  br i1 %81, label %82, label %89

82:                                               ; preds = %76
  %83 = load i64, ptr %4, align 8, !tbaa !6
  %84 = call i64 @rbimpl_intern_const(ptr noundef @parse_frag_cb.rbimpl_id.137, ptr noundef @.str.52) #25
  store i64 %84, ptr %16, align 8, !tbaa !6
  %85 = load i64, ptr %16, align 8, !tbaa !6
  %86 = call i64 @rb_id2sym(i64 noundef %85)
  %87 = load i64, ptr %6, align 8, !tbaa !6
  %88 = call i64 @rb_hash_aset(i64 noundef %83, i64 noundef %86, i64 noundef %87)
  br label %89

89:                                               ; preds = %82, %76, %68
  br label %90

90:                                               ; preds = %89, %61, %54
  call void @llvm.lifetime.end.p0(i64 8, ptr %6) #21
  call void @llvm.lifetime.end.p0(i64 8, ptr %5) #21
  ret i32 1
}