; Function Attrs: nounwind sspstrong uwtable
define internal noundef i32 @parse_frag_cb(i64 noundef %0, i64 noundef %1) #0 {
  %3 = tail call i64 @rb_reg_nth_match(i32 noundef 1, i64 noundef %0) #13
  %.pr.i = load i64, ptr @parse_frag_cb.rbimpl_id, align 8, !tbaa !6
  %.not4.i = icmp eq i64 %.pr.i, 0
  br i1 %.not4.i, label %.lr.ph.i, label %rbimpl_intern_const.exit

.lr.ph.i:                                         ; preds = %2, %.lr.ph.i
  %4 = tail call i64 @rb_intern2(ptr noundef nonnull @.str.52, i64 noundef 4) #13
  store i64 %4, ptr @parse_frag_cb.rbimpl_id, align 8, !tbaa !6
  %.not.i = icmp eq i64 %4, 0
  br i1 %.not.i, label %.lr.ph.i, label %rbimpl_intern_const.exit, !llvm.loop !36

rbimpl_intern_const.exit:                         ; preds = %.lr.ph.i, %2
  %.lcssa.i = phi i64 [ %.pr.i, %2 ], [ %4, %.lr.ph.i ]
  %5 = tail call i64 @rb_id2sym(i64 noundef %.lcssa.i) #13
  %6 = tail call i64 @rb_hash_aref(i64 noundef %1, i64 noundef %5) #13
  %7 = icmp eq i64 %6, 4
  br i1 %7, label %24, label %8

8:                                                ; preds = %rbimpl_intern_const.exit
  %.pr.i28 = load i64, ptr @parse_frag_cb.rbimpl_id.129, align 8, !tbaa !6
  %.not4.i29 = icmp eq i64 %.pr.i28, 0
  br i1 %.not4.i29, label %.lr.ph.i31, label %rbimpl_intern_const.exit33

.lr.ph.i31:                                       ; preds = %8, %.lr.ph.i31
  %9 = tail call i64 @rb_intern2(ptr noundef nonnull @.str.65, i64 noundef 4) #13
  store i64 %9, ptr @parse_frag_cb.rbimpl_id.129, align 8, !tbaa !6
  %.not.i32 = icmp eq i64 %9, 0
  br i1 %.not.i32, label %.lr.ph.i31, label %rbimpl_intern_const.exit33, !llvm.loop !36

rbimpl_intern_const.exit33:                       ; preds = %.lr.ph.i31, %8
  %.lcssa.i30 = phi i64 [ %.pr.i28, %8 ], [ %9, %.lr.ph.i31 ]
  %10 = tail call i64 @rb_id2sym(i64 noundef %.lcssa.i30) #13
  %11 = tail call i64 @rb_hash_aref(i64 noundef %1, i64 noundef %10) #13
  %12 = icmp eq i64 %11, 4
  br i1 %12, label %13, label %24

13:                                               ; preds = %rbimpl_intern_const.exit33
  %14 = tail call i64 @rb_str_to_inum(i64 noundef %3, i32 noundef 10, i32 noundef 0) #13
  %.pr.i34 = load i64, ptr @parse_frag_cb.rbimpl_id.130, align 8, !tbaa !6
  %.not4.i35 = icmp eq i64 %.pr.i34, 0
  br i1 %.not4.i35, label %.lr.ph.i37, label %rbimpl_intern_const.exit39

.lr.ph.i37:                                       ; preds = %13, %.lr.ph.i37
  %15 = tail call i64 @rb_intern2(ptr noundef nonnull @.str.24, i64 noundef 2) #13
  store i64 %15, ptr @parse_frag_cb.rbimpl_id.130, align 8, !tbaa !6
  %.not.i38 = icmp eq i64 %15, 0
  br i1 %.not.i38, label %.lr.ph.i37, label %rbimpl_intern_const.exit39, !llvm.loop !36

rbimpl_intern_const.exit39:                       ; preds = %.lr.ph.i37, %13
  %.lcssa.i36 = phi i64 [ %.pr.i34, %13 ], [ %15, %.lr.ph.i37 ]
  %16 = tail call i64 (i64, i64, i32, ...) @rb_funcall(i64 noundef %14, i64 noundef %.lcssa.i36, i32 noundef 1, i64 noundef 3) #13
  %.not = icmp eq i64 %16, 0
  br i1 %.not, label %24, label %17

17:                                               ; preds = %rbimpl_intern_const.exit39
  %.pr.i40 = load i64, ptr @parse_frag_cb.rbimpl_id.131, align 8, !tbaa !6
  %.not4.i41 = icmp eq i64 %.pr.i40, 0
  br i1 %.not4.i41, label %.lr.ph.i43, label %rbimpl_intern_const.exit45

.lr.ph.i43:                                       ; preds = %17, %.lr.ph.i43
  %18 = tail call i64 @rb_intern2(ptr noundef nonnull @.str.26, i64 noundef 2) #13
  store i64 %18, ptr @parse_frag_cb.rbimpl_id.131, align 8, !tbaa !6
  %.not.i44 = icmp eq i64 %18, 0
  br i1 %.not.i44, label %.lr.ph.i43, label %rbimpl_intern_const.exit45, !llvm.loop !36

rbimpl_intern_const.exit45:                       ; preds = %.lr.ph.i43, %17
  %.lcssa.i42 = phi i64 [ %.pr.i40, %17 ], [ %18, %.lr.ph.i43 ]
  %19 = tail call i64 (i64, i64, i32, ...) @rb_funcall(i64 noundef %14, i64 noundef %.lcssa.i42, i32 noundef 1, i64 noundef 63) #13
  %.not25 = icmp eq i64 %19, 0
  br i1 %.not25, label %24, label %20

20:                                               ; preds = %rbimpl_intern_const.exit45
  %.pr.i46 = load i64, ptr @parse_frag_cb.rbimpl_id.132, align 8, !tbaa !6
  %.not4.i47 = icmp eq i64 %.pr.i46, 0
  br i1 %.not4.i47, label %.lr.ph.i49, label %rbimpl_intern_const.exit51

.lr.ph.i49:                                       ; preds = %20, %.lr.ph.i49
  %21 = tail call i64 @rb_intern2(ptr noundef nonnull @.str.65, i64 noundef 4) #13
  store i64 %21, ptr @parse_frag_cb.rbimpl_id.132, align 8, !tbaa !6
  %.not.i50 = icmp eq i64 %21, 0
  br i1 %.not.i50, label %.lr.ph.i49, label %rbimpl_intern_const.exit51, !llvm.loop !36

rbimpl_intern_const.exit51:                       ; preds = %.lr.ph.i49, %20
  %.lcssa.i48 = phi i64 [ %.pr.i46, %20 ], [ %21, %.lr.ph.i49 ]
  %22 = tail call i64 @rb_id2sym(i64 noundef %.lcssa.i48) #13
  %23 = tail call i64 @rb_hash_aset(i64 noundef %1, i64 noundef %22, i64 noundef %14) #13
  br label %24

24:                                               ; preds = %rbimpl_intern_const.exit39, %rbimpl_intern_const.exit45, %rbimpl_intern_const.exit51, %rbimpl_intern_const.exit33, %rbimpl_intern_const.exit
  %.pr.i52 = load i64, ptr @parse_frag_cb.rbimpl_id.133, align 8, !tbaa !6
  %.not4.i53 = icmp eq i64 %.pr.i52, 0
  br i1 %.not4.i53, label %.lr.ph.i55, label %rbimpl_intern_const.exit57

.lr.ph.i55:                                       ; preds = %24, %.lr.ph.i55
  %25 = tail call i64 @rb_intern2(ptr noundef nonnull @.str.65, i64 noundef 4) #13
  store i64 %25, ptr @parse_frag_cb.rbimpl_id.133, align 8, !tbaa !6
  %.not.i56 = icmp eq i64 %25, 0
  br i1 %.not.i56, label %.lr.ph.i55, label %rbimpl_intern_const.exit57, !llvm.loop !36

rbimpl_intern_const.exit57:                       ; preds = %.lr.ph.i55, %24
  %.lcssa.i54 = phi i64 [ %.pr.i52, %24 ], [ %25, %.lr.ph.i55 ]
  %26 = tail call i64 @rb_id2sym(i64 noundef %.lcssa.i54) #13
  %27 = tail call i64 @rb_hash_aref(i64 noundef %1, i64 noundef %26) #13
  %28 = icmp eq i64 %27, 4
  br i1 %28, label %45, label %29

29:                                               ; preds = %rbimpl_intern_const.exit57
  %.pr.i58 = load i64, ptr @parse_frag_cb.rbimpl_id.134, align 8, !tbaa !6
  %.not4.i59 = icmp eq i64 %.pr.i58, 0
  br i1 %.not4.i59, label %.lr.ph.i61, label %rbimpl_intern_const.exit63

.lr.ph.i61:                                       ; preds = %29, %.lr.ph.i61
  %30 = tail call i64 @rb_intern2(ptr noundef nonnull @.str.52, i64 noundef 4) #13
  store i64 %30, ptr @parse_frag_cb.rbimpl_id.134, align 8, !tbaa !6
  %.not.i62 = icmp eq i64 %30, 0
  br i1 %.not.i62, label %.lr.ph.i61, label %rbimpl_intern_const.exit63, !llvm.loop !36

rbimpl_intern_const.exit63:                       ; preds = %.lr.ph.i61, %29
  %.lcssa.i60 = phi i64 [ %.pr.i58, %29 ], [ %30, %.lr.ph.i61 ]
  %31 = tail call i64 @rb_id2sym(i64 noundef %.lcssa.i60) #13
  %32 = tail call i64 @rb_hash_aref(i64 noundef %1, i64 noundef %31) #13
  %33 = icmp eq i64 %32, 4
  br i1 %33, label %34, label %45

34:                                               ; preds = %rbimpl_intern_const.exit63
  %35 = tail call i64 @rb_str_to_inum(i64 noundef %3, i32 noundef 10, i32 noundef 0) #13
  %.pr.i64 = load i64, ptr @parse_frag_cb.rbimpl_id.135, align 8, !tbaa !6
  %.not4.i65 = icmp eq i64 %.pr.i64, 0
  br i1 %.not4.i65, label %.lr.ph.i67, label %rbimpl_intern_const.exit69

.lr.ph.i67:                                       ; preds = %34, %.lr.ph.i67
  %36 = tail call i64 @rb_intern2(ptr noundef nonnull @.str.24, i64 noundef 2) #13
  store i64 %36, ptr @parse_frag_cb.rbimpl_id.135, align 8, !tbaa !6
  %.not.i68 = icmp eq i64 %36, 0
  br i1 %.not.i68, label %.lr.ph.i67, label %rbimpl_intern_const.exit69, !llvm.loop !36

rbimpl_intern_const.exit69:                       ; preds = %.lr.ph.i67, %34
  %.lcssa.i66 = phi i64 [ %.pr.i64, %34 ], [ %36, %.lr.ph.i67 ]
  %37 = tail call i64 (i64, i64, i32, ...) @rb_funcall(i64 noundef %35, i64 noundef %.lcssa.i66, i32 noundef 1, i64 noundef 1) #13
  %.not26 = icmp eq i64 %37, 0
  br i1 %.not26, label %45, label %38

38:                                               ; preds = %rbimpl_intern_const.exit69
  %.pr.i70 = load i64, ptr @parse_frag_cb.rbimpl_id.136, align 8, !tbaa !6
  %.not4.i71 = icmp eq i64 %.pr.i70, 0
  br i1 %.not4.i71, label %.lr.ph.i73, label %rbimpl_intern_const.exit75

.lr.ph.i73:                                       ; preds = %38, %.lr.ph.i73
  %39 = tail call i64 @rb_intern2(ptr noundef nonnull @.str.26, i64 noundef 2) #13
  store i64 %39, ptr @parse_frag_cb.rbimpl_id.136, align 8, !tbaa !6
  %.not.i74 = icmp eq i64 %39, 0
  br i1 %.not.i74, label %.lr.ph.i73, label %rbimpl_intern_const.exit75, !llvm.loop !36

rbimpl_intern_const.exit75:                       ; preds = %.lr.ph.i73, %38
  %.lcssa.i72 = phi i64 [ %.pr.i70, %38 ], [ %39, %.lr.ph.i73 ]
  %40 = tail call i64 (i64, i64, i32, ...) @rb_funcall(i64 noundef %35, i64 noundef %.lcssa.i72, i32 noundef 1, i64 noundef 49) #13
  %.not27 = icmp eq i64 %40, 0
  br i1 %.not27, label %45, label %41

41:                                               ; preds = %rbimpl_intern_const.exit75
  %.pr.i76 = load i64, ptr @parse_frag_cb.rbimpl_id.137, align 8, !tbaa !6
  %.not4.i77 = icmp eq i64 %.pr.i76, 0
  br i1 %.not4.i77, label %.lr.ph.i79, label %rbimpl_intern_const.exit81

.lr.ph.i79:                                       ; preds = %41, %.lr.ph.i79
  %42 = tail call i64 @rb_intern2(ptr noundef nonnull @.str.52, i64 noundef 4) #13
  store i64 %42, ptr @parse_frag_cb.rbimpl_id.137, align 8, !tbaa !6
  %.not.i80 = icmp eq i64 %42, 0
  br i1 %.not.i80, label %.lr.ph.i79, label %rbimpl_intern_const.exit81, !llvm.loop !36

rbimpl_intern_const.exit81:                       ; preds = %.lr.ph.i79, %41
  %.lcssa.i78 = phi i64 [ %.pr.i76, %41 ], [ %42, %.lr.ph.i79 ]
  %43 = tail call i64 @rb_id2sym(i64 noundef %.lcssa.i78) #13
  %44 = tail call i64 @rb_hash_aset(i64 noundef %1, i64 noundef %43, i64 noundef %35) #13
  br label %45

45:                                               ; preds = %rbimpl_intern_const.exit69, %rbimpl_intern_const.exit75, %rbimpl_intern_const.exit81, %rbimpl_intern_const.exit63, %rbimpl_intern_const.exit57
  ret i32 1
}